

Microchip MPLAB XC8 Assembler V2.10 build 88905656 
                                                                                               Thu Apr 09 07:32:32 2020

Microchip MPLAB XC8 C Compiler v2.10 (Free license) build 20190730164152 Og1 
     1                           	processor	18F45K20
     2                           	fnconf	rparam,??,?,0
     3                           	opt	pw 120
     4                           	opt	flic
     5                           	psect	idataCOMRAM,global,class=CODE,delta=1,noexec
     6                           	psect	cinit,global,reloc=2,class=CODE,delta=1
     7                           	psect	dataCOMRAM,global,class=COMRAM,space=1,delta=1,noexec
     8                           	psect	cstackCOMRAM,global,class=COMRAM,space=1,delta=1,noexec
     9                           	psect	text0,global,reloc=2,class=CODE,delta=1
    10                           	psect	text1,global,reloc=2,class=CODE,delta=1
    11                           	psect	text2,global,reloc=2,class=CODE,delta=1
    12                           	psect	text3,global,reloc=2,class=CODE,delta=1
    13                           	psect	text4,global,reloc=2,class=CODE,delta=1
    14                           	psect	text5,global,reloc=2,class=CODE,delta=1
    15                           	psect	text6,global,reloc=2,class=CODE,delta=1
    16                           	psect	intsave_regs,global,class=BIGRAM,space=1,delta=1,noexec
    17                           	psect	rparam,global,class=COMRAM,space=1,delta=1,noexec
    18  0000                     
    19                           ; Version 2.10
    20                           ; Generated 31/07/2019 GMT
    21                           ; 
    22                           ; Copyright © 2019, Microchip Technology Inc. and its subsidiaries ("Microchip")
    23                           ; All rights reserved.
    24                           ; 
    25                           ; This software is developed by Microchip Technology Inc. and its subsidiaries ("Microch
      +                          ip").
    26                           ; 
    27                           ; Redistribution and use in source and binary forms, with or without modification, are
    28                           ; permitted provided that the following conditions are met:
    29                           ; 
    30                           ;     1. Redistributions of source code must retain the above copyright notice, this lis
      +                          t of
    31                           ;        conditions and the following disclaimer.
    32                           ; 
    33                           ;     2. Redistributions in binary form must reproduce the above copyright notice, this 
      +                          list
    34                           ;        of conditions and the following disclaimer in the documentation and/or other
    35                           ;        materials provided with the distribution.
    36                           ; 
    37                           ;     3. Microchip's name may not be used to endorse or promote products derived from th
      +                          is
    38                           ;        software without specific prior written permission.
    39                           ; 
    40                           ; THIS SOFTWARE IS PROVIDED BY MICROCHIP "AS IS" AND ANY EXPRESS OR IMPLIED WARRANTIES,
    41                           ; INCLUDING, BUT NOT LIMITED TO, THE IMPLIED WARRANTIES OF MERCHANTABILITY AND FITNESS F
      +                          OR
    42                           ; PURPOSE ARE DISCLAIMED.  IN NO EVENT SHALL MICROCHIP BE LIABLE FOR ANY DIRECT, INDIREC
      +                          T,
    43                           ; INCIDENTAL, SPECIAL, EXEMPLARY, OR CONSEQUENTIAL DAMAGES (INCLUDING BUT NOT LIMITED TO
    44                           ; PROCUREMENT OF SUBSTITUTE GOODS OR SERVICES; LOSS OF USE, DATA OR PROFITS; OR BUSINESS
    45                           ; INTERRUPTION) HOWSOEVER CAUSED AND ON ANY THEORY OF LIABILITY, WHETHER IN CONTRACT, ST
      +                          RICT
    46                           ; LIABILITY, OR TORT (INCLUDING NEGLIGENCE OR OTHERWISE) ARISING IN ANY WAY OUT OF THE U
      +                          SE OF
    47                           ; THIS SOFTWARE, EVEN IF ADVISED OF THE POSSIBILITY OF SUCH DAMAGE.
    48                           ; 
    49                           ; 
    50                           ; Code-generator required, PIC18F45K20 Definitions
    51                           ; 
    52                           ; SFR Addresses
    53  0000                     
    54                           	psect	idataCOMRAM
    55  007EEB                     __pidataCOMRAM:
    56                           	opt callstack 0
    57                           
    58                           ;initializer for _astOutputs
    59  007EEB  89                 	db	137
    60  007EEC  0F                 	db	15
    61  007EED  00                 	db	0
    62  007EEE  89                 	db	137
    63  007EEF  0F                 	db	15
    64  007EF0  01                 	db	1
    65  007EF1  89                 	db	137
    66  007EF2  0F                 	db	15
    67  007EF3  02                 	db	2
    68  007EF4  89                 	db	137
    69  007EF5  0F                 	db	15
    70  007EF6  03                 	db	3
    71  007EF7  89                 	db	137
    72  007EF8  0F                 	db	15
    73  007EF9  04                 	db	4
    74  007EFA  89                 	db	137
    75  007EFB  0F                 	db	15
    76  007EFC  05                 	db	5
    77  007EFD  89                 	db	137
    78  007EFE  0F                 	db	15
    79  007EFF  06                 	db	6
    80  007F00  89                 	db	137
    81  007F01  0F                 	db	15
    82  007F02  07                 	db	7
    83  007F03  8A                 	db	138
    84  007F04  0F                 	db	15
    85  007F05  01                 	db	1
    86                           
    87                           ;initializer for _astInputs
    88  007F06  8C                 	db	140
    89  007F07  0F                 	db	15
    90  007F08  00                 	db	0
    91  007F09  8C                 	db	140
    92  007F0A  0F                 	db	15
    93  007F0B  01                 	db	1
    94  007F0C  8C                 	db	140
    95  007F0D  0F                 	db	15
    96  007F0E  02                 	db	2
    97  007F0F  8C                 	db	140
    98  007F10  0F                 	db	15
    99  007F11  03                 	db	3
   100  007F12  8C                 	db	140
   101  007F13  0F                 	db	15
   102  007F14  04                 	db	4
   103  007F15  8C                 	db	140
   104  007F16  0F                 	db	15
   105  007F17  05                 	db	5
   106  007F18  8C                 	db	140
   107  007F19  0F                 	db	15
   108  007F1A  06                 	db	6
   109  007F1B  8C                 	db	140
   110  007F1C  0F                 	db	15
   111  007F1D  07                 	db	7
   112  007F1E  8A                 	db	138
   113  007F1F  0F                 	db	15
   114  007F20  00                 	db	0
   115                           
   116                           ;initializer for _astLEDs
   117  007F21  8B                 	db	139
   118  007F22  0F                 	db	15
   119  007F23  00                 	db	0
   120  007F24  8B                 	db	139
   121  007F25  0F                 	db	15
   122  007F26  02                 	db	2
   123  007F27  8B                 	db	139
   124  007F28  0F                 	db	15
   125  007F29  01                 	db	1
   126  007F2A  8B                 	db	139
   127  007F2B  0F                 	db	15
   128  007F2C  05                 	db	5
   129  007F2D  8B                 	db	139
   130  007F2E  0F                 	db	15
   131  007F2F  06                 	db	6
   132  007F30  8B                 	db	139
   133  007F31  0F                 	db	15
   134  007F32  07                 	db	7
   135  007F33  8A                 	db	138
   136  007F34  0F                 	db	15
   137  007F35  03                 	db	3
   138  007F36  8A                 	db	138
   139  007F37  0F                 	db	15
   140  007F38  04                 	db	4
   141  007F39  8D                 	db	141
   142  007F3A  0F                 	db	15
   143  007F3B  00                 	db	0
   144  0000                     _ANSELH	set	3967
   145  0000                     _ANSEL	set	3966
   146  0000                     _T3CON	set	4017
   147  0000                     _OSCCON	set	4051
   148  0000                     _T0CON	set	4053
   149  0000                     _TRISEbits	set	3990
   150  0000                     _TRISD	set	3989
   151  0000                     _TRISBbits	set	3987
   152  0000                     _TRISC	set	3988
   153  0000                     _TRISA	set	3986
   154  0000                     _LATEbits	set	3981
   155  0000                     _LATE	set	3981
   156  0000                     _LATC	set	3979
   157  0000                     _LATA	set	3977
   158  0000                     _LATB	set	3978
   159  0000                     _LATD	set	3980
   160                           
   161                           ; #config settings
   162  0000                     
   163                           	psect	cinit
   164  007E98                     __pcinit:
   165                           	opt callstack 0
   166  007E98                     start_initialization:
   167                           	opt callstack 0
   168  007E98                     __initialization:
   169                           	opt callstack 0
   170                           
   171                           ; Initialize objects allocated to COMRAM (81 bytes)
   172                           ; load TBLPTR registers with __pidataCOMRAM
   173  007E98  0EEB               	movlw	low __pidataCOMRAM
   174  007E9A  6EF6               	movwf	tblptrl,c
   175  007E9C  0E7E               	movlw	high __pidataCOMRAM
   176  007E9E  6EF7               	movwf	tblptrh,c
   177  007EA0  0E00               	movlw	low (__pidataCOMRAM shr (0+16))
   178  007EA2  6EF8               	movwf	tblptru,c
   179  007EA4  EE00  F001         	lfsr	0,__pdataCOMRAM
   180  007EA8  EE10 F051          	lfsr	1,81
   181  007EAC                     copy_data0:
   182  007EAC  0009               	tblrd		*+
   183  007EAE  CFF5 FFEE          	movff	tablat,postinc0
   184  007EB2  50E5               	movf	postdec1,w,c
   185  007EB4  50E1               	movf	fsr1l,w,c
   186  007EB6  E1FA               	bnz	copy_data0
   187  007EB8                     end_of_initialization:
   188                           	opt callstack 0
   189  007EB8                     __end_of__initialization:
   190                           	opt callstack 0
   191  007EB8  0100               	movlb	0
   192  007EBA  EF1D  F03F         	goto	_main	;jump to C main() function
   193                           
   194                           	psect	dataCOMRAM
   195  000001                     __pdataCOMRAM:
   196                           	opt callstack 0
   197  000001                     _astOutputs:
   198                           	opt callstack 0
   199  000001                     	ds	27
   200  00001C                     _astInputs:
   201                           	opt callstack 0
   202  00001C                     	ds	27
   203  000037                     _astLEDs:
   204                           	opt callstack 0
   205  000037                     	ds	27
   206                           
   207                           	psect	cstackCOMRAM
   208  000052                     __pcstackCOMRAM:
   209                           	opt callstack 0
   210  000052                     flash_LEDs@uc:
   211                           	opt callstack 0
   212  000052                     set_IO@IO:
   213                           	opt callstack 0
   214                           
   215                           ; 2 bytes @ 0x0
   216  000052                     	ds	1
   217  000053                     
   218                           ; 1 bytes @ 0x1
   219  000053                     	ds	1
   220  000054                     set_IO@item:
   221                           	opt callstack 0
   222                           
   223                           ; 1 bytes @ 0x2
   224  000054                     	ds	1
   225  000055                     set_IO@bValue:
   226                           	opt callstack 0
   227                           
   228                           ; 1 bytes @ 0x3
   229  000055                     	ds	1
   230  000056                     ??_set_IO:
   231                           
   232                           ; 1 bytes @ 0x4
   233  000056                     	ds	5
   234  00005B                     set_IO@ucLocal:
   235                           	opt callstack 0
   236                           
   237                           ; 2 bytes @ 0x9
   238  00005B                     	ds	2
   239  00005D                     all_LEDs@uc:
   240                           	opt callstack 0
   241                           
   242                           ; 1 bytes @ 0xB
   243  00005D                     	ds	1
   244  00005E                     
   245                           ; 1 bytes @ 0xC
   246 ;;
   247 ;;Main: autosize = 0, tempsize = 0, incstack = 0, save=0
   248 ;;
   249 ;; *************** function _main *****************
   250 ;; Defined at:
   251 ;;		line 71 in file "../main.c"
   252 ;; Parameters:    Size  Location     Type
   253 ;;		None
   254 ;; Auto vars:     Size  Location     Type
   255 ;;		None
   256 ;; Return value:  Size  Location     Type
   257 ;;                  1    wreg      void 
   258 ;; Registers used:
   259 ;;		wreg, fsr2l, fsr2h, status,2, status,0, prodl, prodh, cstack
   260 ;; Tracked objects:
   261 ;;		On entry : 0/0
   262 ;;		On exit  : 0/0
   263 ;;		Unchanged: 0/0
   264 ;; Data sizes:     COMRAM   BANK0   BANK1   BANK2   BANK3   BANK4   BANK5
   265 ;;      Params:         0       0       0       0       0       0       0
   266 ;;      Locals:         0       0       0       0       0       0       0
   267 ;;      Temps:          0       0       0       0       0       0       0
   268 ;;      Totals:         0       0       0       0       0       0       0
   269 ;;Total ram usage:        0 bytes
   270 ;; Hardware stack levels required when called:    2
   271 ;; This function calls:
   272 ;;		_all_LEDs
   273 ;;		_setup
   274 ;; This function is called by:
   275 ;;		Startup code after reset
   276 ;; This function uses a non-reentrant model
   277 ;;
   278                           
   279                           	psect	text0
   280  007E3A                     __ptext0:
   281                           	opt callstack 0
   282  007E3A                     _main:
   283                           	opt callstack 29
   284  007E3A                     
   285                           ;../main.c: 73:     setup();
   286  007E3A  EC16  F03F         	call	_setup	;wreg free
   287  007E3E                     l887:
   288                           
   289                           ;../main.c: 78:    {;../main.c: 80:         all_LEDs();
   290  007E3E  EC5F  F03F         	call	_all_LEDs	;wreg free
   291  007E42  EF1F  F03F         	goto	l887
   292  007E46  EF00  F000         	goto	start
   293  007E4A                     __end_of_main:
   294                           	opt callstack 0
   295                           
   296 ;; *************** function _setup *****************
   297 ;; Defined at:
   298 ;;		line 86 in file "../setup.c"
   299 ;; Parameters:    Size  Location     Type
   300 ;;		None
   301 ;; Auto vars:     Size  Location     Type
   302 ;;		None
   303 ;; Return value:  Size  Location     Type
   304 ;;                  1    wreg      void 
   305 ;; Registers used:
   306 ;;		wreg, status,2, status,0, cstack
   307 ;; Tracked objects:
   308 ;;		On entry : 0/0
   309 ;;		On exit  : 0/0
   310 ;;		Unchanged: 0/0
   311 ;; Data sizes:     COMRAM   BANK0   BANK1   BANK2   BANK3   BANK4   BANK5
   312 ;;      Params:         0       0       0       0       0       0       0
   313 ;;      Locals:         0       0       0       0       0       0       0
   314 ;;      Temps:          0       0       0       0       0       0       0
   315 ;;      Totals:         0       0       0       0       0       0       0
   316 ;;Total ram usage:        0 bytes
   317 ;; Hardware stack levels used:    1
   318 ;; Hardware stack levels required when called:    1
   319 ;; This function calls:
   320 ;;		_IO_setup
   321 ;;		_Timer_and_Interrupt_setup
   322 ;;		_flash_LEDs
   323 ;; This function is called by:
   324 ;;		_main
   325 ;; This function uses a non-reentrant model
   326 ;;
   327                           
   328                           	psect	text1
   329  007E2C                     __ptext1:
   330                           	opt callstack 0
   331  007E2C                     _setup:
   332                           	opt callstack 29
   333  007E2C                     
   334                           ;../setup.c: 89:     IO_setup();
   335  007E2C  EC30  F03F         	call	_IO_setup	;wreg free
   336                           
   337                           ;../setup.c: 90:     Timer_and_Interrupt_setup();
   338  007E30  EC25  F03F         	call	_Timer_and_Interrupt_setup	;wreg free
   339  007E34                     
   340                           ;../setup.c: 91:     flash_LEDs();
   341  007E34  EC3E  F03F         	call	_flash_LEDs	;wreg free
   342  007E38  0012               	return		;funcret
   343  007E3A                     __end_of_setup:
   344                           	opt callstack 0
   345                           
   346 ;; *************** function _flash_LEDs *****************
   347 ;; Defined at:
   348 ;;		line 41 in file "../leds.c"
   349 ;; Parameters:    Size  Location     Type
   350 ;;		None
   351 ;; Auto vars:     Size  Location     Type
   352 ;;  uc              1    0[COMRAM] unsigned char 
   353 ;; Return value:  Size  Location     Type
   354 ;;                  1    wreg      void 
   355 ;; Registers used:
   356 ;;		wreg, status,2, status,0
   357 ;; Tracked objects:
   358 ;;		On entry : 0/0
   359 ;;		On exit  : 0/0
   360 ;;		Unchanged: 0/0
   361 ;; Data sizes:     COMRAM   BANK0   BANK1   BANK2   BANK3   BANK4   BANK5
   362 ;;      Params:         0       0       0       0       0       0       0
   363 ;;      Locals:         1       0       0       0       0       0       0
   364 ;;      Temps:          0       0       0       0       0       0       0
   365 ;;      Totals:         1       0       0       0       0       0       0
   366 ;;Total ram usage:        1 bytes
   367 ;; Hardware stack levels used:    1
   368 ;; This function calls:
   369 ;;		Nothing
   370 ;; This function is called by:
   371 ;;		_setup
   372 ;; This function uses a non-reentrant model
   373 ;;
   374                           
   375                           	psect	text2
   376  007E7C                     __ptext2:
   377                           	opt callstack 0
   378  007E7C                     _flash_LEDs:
   379                           	opt callstack 29
   380  007E7C                     
   381                           ;../leds.c: 43:     unsigned char uc = 0;
   382  007E7C  0E00               	movlw	0
   383  007E7E  6E52               	movwf	flash_LEDs@uc^0,c
   384                           
   385                           ;../leds.c: 44:     while(uc < 1)
   386  007E80  EF43  F03F         	goto	l813
   387  007E84                     l811:
   388                           
   389                           ;../leds.c: 45:     {;../leds.c: 46:         uc++;
   390  007E84  2A52               	incf	flash_LEDs@uc^0,f,c
   391  007E86                     l813:
   392                           
   393                           ;../leds.c: 44:     while(uc < 1)
   394  007E86  5052               	movf	flash_LEDs@uc^0,w,c
   395  007E88  B4D8               	btfsc	status,2,c
   396  007E8A  EF49  F03F         	goto	u41
   397  007E8E  EF4B  F03F         	goto	u40
   398  007E92                     u41:
   399  007E92  EF42  F03F         	goto	l811
   400  007E96                     u40:
   401  007E96  0012               	return		;funcret
   402  007E98                     __end_of_flash_LEDs:
   403                           	opt callstack 0
   404                           
   405 ;; *************** function _Timer_and_Interrupt_setup *****************
   406 ;; Defined at:
   407 ;;		line 70 in file "../setup.c"
   408 ;; Parameters:    Size  Location     Type
   409 ;;		None
   410 ;; Auto vars:     Size  Location     Type
   411 ;;		None
   412 ;; Return value:  Size  Location     Type
   413 ;;                  1    wreg      void 
   414 ;; Registers used:
   415 ;;		wreg, status,2
   416 ;; Tracked objects:
   417 ;;		On entry : 0/0
   418 ;;		On exit  : 0/0
   419 ;;		Unchanged: 0/0
   420 ;; Data sizes:     COMRAM   BANK0   BANK1   BANK2   BANK3   BANK4   BANK5
   421 ;;      Params:         0       0       0       0       0       0       0
   422 ;;      Locals:         0       0       0       0       0       0       0
   423 ;;      Temps:          0       0       0       0       0       0       0
   424 ;;      Totals:         0       0       0       0       0       0       0
   425 ;;Total ram usage:        0 bytes
   426 ;; Hardware stack levels used:    1
   427 ;; This function calls:
   428 ;;		Nothing
   429 ;; This function is called by:
   430 ;;		_setup
   431 ;; This function uses a non-reentrant model
   432 ;;
   433                           
   434                           	psect	text3
   435  007E4A                     __ptext3:
   436                           	opt callstack 0
   437  007E4A                     _Timer_and_Interrupt_setup:
   438                           	opt callstack 29
   439  007E4A                     
   440                           ;../setup.c: 74:     T0CON = 0b10010101;
   441  007E4A  0E95               	movlw	149
   442  007E4C  6ED5               	movwf	213,c	;volatile
   443                           
   444                           ;../setup.c: 76:     OSCCON = 0b01100111;
   445  007E4E  0E67               	movlw	103
   446  007E50  6ED3               	movwf	211,c	;volatile
   447                           
   448                           ;../setup.c: 80:     T3CON = 0b10110101;
   449  007E52  0EB5               	movlw	181
   450  007E54  6EB1               	movwf	177,c	;volatile
   451                           
   452                           ;../setup.c: 82:     ANSEL = 0x00;
   453  007E56  0E00               	movlw	0
   454  007E58  6E7E               	movwf	126,c	;volatile
   455                           
   456                           ;../setup.c: 83:     ANSELH = 0x00;
   457  007E5A  0E00               	movlw	0
   458  007E5C  6E7F               	movwf	127,c	;volatile
   459  007E5E  0012               	return		;funcret
   460  007E60                     __end_of_Timer_and_Interrupt_setup:
   461                           	opt callstack 0
   462                           
   463 ;; *************** function _IO_setup *****************
   464 ;; Defined at:
   465 ;;		line 53 in file "../setup.c"
   466 ;; Parameters:    Size  Location     Type
   467 ;;		None
   468 ;; Auto vars:     Size  Location     Type
   469 ;;		None
   470 ;; Return value:  Size  Location     Type
   471 ;;                  1    wreg      void 
   472 ;; Registers used:
   473 ;;		wreg, status,2
   474 ;; Tracked objects:
   475 ;;		On entry : 0/0
   476 ;;		On exit  : 0/0
   477 ;;		Unchanged: 0/0
   478 ;; Data sizes:     COMRAM   BANK0   BANK1   BANK2   BANK3   BANK4   BANK5
   479 ;;      Params:         0       0       0       0       0       0       0
   480 ;;      Locals:         0       0       0       0       0       0       0
   481 ;;      Temps:          0       0       0       0       0       0       0
   482 ;;      Totals:         0       0       0       0       0       0       0
   483 ;;Total ram usage:        0 bytes
   484 ;; Hardware stack levels used:    1
   485 ;; This function calls:
   486 ;;		Nothing
   487 ;; This function is called by:
   488 ;;		_setup
   489 ;; This function uses a non-reentrant model
   490 ;;
   491                           
   492                           	psect	text4
   493  007E60                     __ptext4:
   494                           	opt callstack 0
   495  007E60                     _IO_setup:
   496                           	opt callstack 29
   497  007E60                     
   498                           ;../setup.c: 55:   TRISA = 0x00;
   499  007E60  0E00               	movlw	0
   500  007E62  6E92               	movwf	146,c	;volatile
   501                           
   502                           ;../setup.c: 56:   TRISC = 0x00;
   503  007E64  0E00               	movlw	0
   504  007E66  6E94               	movwf	148,c	;volatile
   505  007E68                     
   506                           ;../setup.c: 57:   TRISBbits.RB0 = 1;
   507  007E68  8093               	bsf	147,0,c	;volatile
   508  007E6A                     
   509                           ;../setup.c: 58:   TRISBbits.RB1 = 0;
   510  007E6A  9293               	bcf	147,1,c	;volatile
   511  007E6C                     
   512                           ;../setup.c: 59:   TRISBbits.RB2 = 0;
   513  007E6C  9493               	bcf	147,2,c	;volatile
   514  007E6E                     
   515                           ;../setup.c: 60:   TRISBbits.RB3 = 0;
   516  007E6E  9693               	bcf	147,3,c	;volatile
   517  007E70                     
   518                           ;../setup.c: 61:   TRISBbits.RB4 = 0;
   519  007E70  9893               	bcf	147,4,c	;volatile
   520  007E72                     
   521                           ;../setup.c: 62:   TRISD = 0xFF;
   522  007E72  6895               	setf	149,c	;volatile
   523  007E74                     
   524                           ;../setup.c: 63:   TRISEbits.RE0 = 0;
   525  007E74  9096               	bcf	150,0,c	;volatile
   526  007E76                     
   527                           ;../setup.c: 64:   TRISEbits.RE1 = 1;
   528  007E76  8296               	bsf	150,1,c	;volatile
   529  007E78                     
   530                           ;../setup.c: 65:   TRISEbits.RE2 = 1;
   531  007E78  8496               	bsf	150,2,c	;volatile
   532  007E7A  0012               	return		;funcret
   533  007E7C                     __end_of_IO_setup:
   534                           	opt callstack 0
   535                           
   536 ;; *************** function _all_LEDs *****************
   537 ;; Defined at:
   538 ;;		line 31 in file "../leds.c"
   539 ;; Parameters:    Size  Location     Type
   540 ;;		None
   541 ;; Auto vars:     Size  Location     Type
   542 ;;  uc              1   11[COMRAM] unsigned char 
   543 ;; Return value:  Size  Location     Type
   544 ;;                  1    wreg      void 
   545 ;; Registers used:
   546 ;;		wreg, fsr2l, fsr2h, status,2, status,0, prodl, prodh, cstack
   547 ;; Tracked objects:
   548 ;;		On entry : 0/0
   549 ;;		On exit  : 0/0
   550 ;;		Unchanged: 0/0
   551 ;; Data sizes:     COMRAM   BANK0   BANK1   BANK2   BANK3   BANK4   BANK5
   552 ;;      Params:         0       0       0       0       0       0       0
   553 ;;      Locals:         1       0       0       0       0       0       0
   554 ;;      Temps:          0       0       0       0       0       0       0
   555 ;;      Totals:         1       0       0       0       0       0       0
   556 ;;Total ram usage:        1 bytes
   557 ;; Hardware stack levels used:    1
   558 ;; Hardware stack levels required when called:    1
   559 ;; This function calls:
   560 ;;		_set_IO
   561 ;; This function is called by:
   562 ;;		_main
   563 ;; This function uses a non-reentrant model
   564 ;;
   565                           
   566                           	psect	text5
   567  007EBE                     __ptext5:
   568                           	opt callstack 0
   569  007EBE                     _all_LEDs:
   570                           	opt callstack 29
   571  007EBE                     
   572                           ;../leds.c: 34:     for (unsigned char uc = 0; uc < 9; uc++)
   573  007EBE  0E00               	movlw	0
   574  007EC0  6E5D               	movwf	all_LEDs@uc^0,c
   575  007EC2                     l879:
   576                           
   577                           ;../leds.c: 35:     {;../leds.c: 36:         set_IO(astLEDs, uc, 1);
   578  007EC2  0E37               	movlw	low _astLEDs
   579  007EC4  6E52               	movwf	set_IO@IO^0,c
   580  007EC6  0E00               	movlw	high _astLEDs
   581  007EC8  6E53               	movwf	(set_IO@IO+1)^0,c
   582  007ECA  C05D  F054         	movff	all_LEDs@uc,set_IO@item
   583  007ECE  0E01               	movlw	1
   584  007ED0  6E55               	movwf	set_IO@bValue^0,c
   585  007ED2  EC9E  F03F         	call	_set_IO	;wreg free
   586  007ED6                     
   587                           ;../leds.c: 37:     }
   588  007ED6  2A5D               	incf	all_LEDs@uc^0,f,c
   589  007ED8  0E08               	movlw	8
   590  007EDA  645D               	cpfsgt	all_LEDs@uc^0,c
   591  007EDC  EF72  F03F         	goto	u111
   592  007EE0  EF74  F03F         	goto	u110
   593  007EE4                     u111:
   594  007EE4  EF61  F03F         	goto	l879
   595  007EE8                     u110:
   596  007EE8  0012               	return		;funcret
   597  007EEA                     __end_of_all_LEDs:
   598                           	opt callstack 0
   599                           
   600 ;; *************** function _set_IO *****************
   601 ;; Defined at:
   602 ;;		line 9 in file "../setup.c"
   603 ;; Parameters:    Size  Location     Type
   604 ;;  IO              2    0[COMRAM] PTR struct gstGPIO
   605 ;;		 -> astLEDs(27), 
   606 ;;  item            1    2[COMRAM] unsigned char 
   607 ;;  bValue          1    3[COMRAM] unsigned char 
   608 ;; Auto vars:     Size  Location     Type
   609 ;;  ucLocal         2    9[COMRAM] PTR volatile unsigned ch
   610 ;;		 -> LATE(1), LATC(1), LATA(1), LATB(1), 
   611 ;;		 -> LATD(1), 
   612 ;; Return value:  Size  Location     Type
   613 ;;                  1    wreg      void 
   614 ;; Registers used:
   615 ;;		wreg, fsr2l, fsr2h, status,2, status,0, prodl, prodh
   616 ;; Tracked objects:
   617 ;;		On entry : 0/0
   618 ;;		On exit  : 0/0
   619 ;;		Unchanged: 0/0
   620 ;; Data sizes:     COMRAM   BANK0   BANK1   BANK2   BANK3   BANK4   BANK5
   621 ;;      Params:         4       0       0       0       0       0       0
   622 ;;      Locals:         2       0       0       0       0       0       0
   623 ;;      Temps:          5       0       0       0       0       0       0
   624 ;;      Totals:        11       0       0       0       0       0       0
   625 ;;Total ram usage:       11 bytes
   626 ;; Hardware stack levels used:    1
   627 ;; This function calls:
   628 ;;		Nothing
   629 ;; This function is called by:
   630 ;;		_all_LEDs
   631 ;;		_clr_LEDs
   632 ;; This function uses a non-reentrant model
   633 ;;
   634                           
   635                           	psect	text6
   636  007F3C                     __ptext6:
   637                           	opt callstack 0
   638  007F3C                     _set_IO:
   639                           	opt callstack 29
   640  007F3C                     
   641                           ;../setup.c: 9: void set_IO (struct gstGPIO *IO, unsigned char item,unsigned char bValue
      +                          );../setup.c: 10: {;../setup.c: 11:     volatile unsigned char *ucLocal;;../setup.c: 12:
      +                               ucLocal = IO[item].port;
   642  007F3C  5054               	movf	set_IO@item^0,w,c
   643  007F3E  0D03               	mullw	3
   644  007F40  CFF3 F056          	movff	prodl,??_set_IO
   645  007F44  CFF4 F057          	movff	prodh,??_set_IO+1
   646  007F48  5056               	movf	??_set_IO^0,w,c
   647  007F4A  2452               	addwf	set_IO@IO^0,w,c
   648  007F4C  6ED9               	movwf	fsr2l,c
   649  007F4E  5057               	movf	(??_set_IO+1)^0,w,c
   650  007F50  2053               	addwfc	(set_IO@IO+1)^0,w,c
   651  007F52  6EDA               	movwf	fsr2h,c
   652  007F54  CFDE F05B          	movff	postinc2,set_IO@ucLocal
   653  007F58  CFDD F05C          	movff	postdec2,set_IO@ucLocal+1
   654  007F5C                     
   655                           ;../setup.c: 13:     if (bValue)
   656  007F5C  5055               	movf	set_IO@bValue^0,w,c
   657  007F5E  B4D8               	btfsc	status,2,c
   658  007F60  EFB4  F03F         	goto	u81
   659  007F64  EFB6  F03F         	goto	u80
   660  007F68                     u81:
   661  007F68  EFDA  F03F         	goto	l871
   662  007F6C                     u80:
   663  007F6C                     
   664                           ;../setup.c: 14:     {;../setup.c: 15:         *ucLocal |= (1 << IO[item].pin);
   665  007F6C  5054               	movf	set_IO@item^0,w,c
   666  007F6E  0D03               	mullw	3
   667  007F70  C052  F056         	movff	set_IO@IO,??_set_IO
   668  007F74  C053  F057         	movff	set_IO@IO+1,??_set_IO+1
   669  007F78  50F3               	movf	243,w,c
   670  007F7A  2656               	addwf	??_set_IO^0,f,c
   671  007F7C  50F4               	movf	244,w,c
   672  007F7E  2257               	addwfc	(??_set_IO+1)^0,f,c
   673  007F80  0E02               	movlw	2
   674  007F82  2456               	addwf	??_set_IO^0,w,c
   675  007F84  6ED9               	movwf	fsr2l,c
   676  007F86  0E00               	movlw	0
   677  007F88  2057               	addwfc	(??_set_IO+1)^0,w,c
   678  007F8A  6EDA               	movwf	fsr2h,c
   679  007F8C  50DF               	movf	indf2,w,c
   680  007F8E  6E58               	movwf	(??_set_IO+2)^0,c
   681  007F90  0E01               	movlw	1
   682  007F92  6E59               	movwf	(??_set_IO+3)^0,c
   683  007F94  2A58               	incf	(??_set_IO+2)^0,f,c
   684  007F96  EFCF  F03F         	goto	u94
   685  007F9A                     u95:
   686  007F9A  90D8               	bcf	status,0,c
   687  007F9C  3659               	rlcf	(??_set_IO+3)^0,f,c
   688  007F9E                     u94:
   689  007F9E  2E58               	decfsz	(??_set_IO+2)^0,f,c
   690  007FA0  EFCD  F03F         	goto	u95
   691  007FA4  C05B  FFD9         	movff	set_IO@ucLocal,fsr2l
   692  007FA8  C05C  FFDA         	movff	set_IO@ucLocal+1,fsr2h
   693  007FAC  5059               	movf	(??_set_IO+3)^0,w,c
   694  007FAE  12DF               	iorwf	indf2,f,c
   695                           
   696                           ;../setup.c: 16:     }
   697  007FB0  EFFF  F03F         	goto	l61
   698  007FB4                     l871:
   699                           
   700                           ;../setup.c: 18:     {;../setup.c: 19:         *ucLocal &= ~(1 << IO[item].pin);
   701  007FB4  5054               	movf	set_IO@item^0,w,c
   702  007FB6  0D03               	mullw	3
   703  007FB8  C052  F056         	movff	set_IO@IO,??_set_IO
   704  007FBC  C053  F057         	movff	set_IO@IO+1,??_set_IO+1
   705  007FC0  50F3               	movf	243,w,c
   706  007FC2  2656               	addwf	??_set_IO^0,f,c
   707  007FC4  50F4               	movf	244,w,c
   708  007FC6  2257               	addwfc	(??_set_IO+1)^0,f,c
   709  007FC8  0E02               	movlw	2
   710  007FCA  2456               	addwf	??_set_IO^0,w,c
   711  007FCC  6ED9               	movwf	fsr2l,c
   712  007FCE  0E00               	movlw	0
   713  007FD0  2057               	addwfc	(??_set_IO+1)^0,w,c
   714  007FD2  6EDA               	movwf	fsr2h,c
   715  007FD4  50DF               	movf	indf2,w,c
   716  007FD6  6E58               	movwf	(??_set_IO+2)^0,c
   717  007FD8  0E01               	movlw	1
   718  007FDA  6E59               	movwf	(??_set_IO+3)^0,c
   719  007FDC  2A58               	incf	(??_set_IO+2)^0,f,c
   720  007FDE  EFF3  F03F         	goto	u104
   721  007FE2                     u105:
   722  007FE2  90D8               	bcf	status,0,c
   723  007FE4  3659               	rlcf	(??_set_IO+3)^0,f,c
   724  007FE6                     u104:
   725  007FE6  2E58               	decfsz	(??_set_IO+2)^0,f,c
   726  007FE8  EFF1  F03F         	goto	u105
   727  007FEC  5059               	movf	(??_set_IO+3)^0,w,c
   728  007FEE  0AFF               	xorlw	255
   729  007FF0  6E5A               	movwf	(??_set_IO+4)^0,c
   730  007FF2  C05B  FFD9         	movff	set_IO@ucLocal,fsr2l
   731  007FF6  C05C  FFDA         	movff	set_IO@ucLocal+1,fsr2h
   732  007FFA  505A               	movf	(??_set_IO+4)^0,w,c
   733  007FFC  16DF               	andwf	indf2,f,c
   734  007FFE                     l61:
   735  007FFE  0012               	return		;funcret
   736  008000                     __end_of_set_IO:
   737                           	opt callstack 0
   738  0000                     
   739                           	psect	rparam
   740  0000                     tosu	equ	0xFFF
   741                           tosh	equ	0xFFE
   742                           tosl	equ	0xFFD
   743                           stkptr	equ	0xFFC
   744                           pclatu	equ	0xFFB
   745                           pclath	equ	0xFFA
   746                           pcl	equ	0xFF9
   747                           tblptru	equ	0xFF8
   748                           tblptrh	equ	0xFF7
   749                           tblptrl	equ	0xFF6
   750                           tablat	equ	0xFF5
   751                           prodh	equ	0xFF4
   752                           prodl	equ	0xFF3
   753                           indf0	equ	0xFEF
   754                           postinc0	equ	0xFEE
   755                           postdec0	equ	0xFED
   756                           preinc0	equ	0xFEC
   757                           plusw0	equ	0xFEB
   758                           fsr0h	equ	0xFEA
   759                           fsr0l	equ	0xFE9
   760                           wreg	equ	0xFE8
   761                           indf1	equ	0xFE7
   762                           postinc1	equ	0xFE6
   763                           postdec1	equ	0xFE5
   764                           preinc1	equ	0xFE4
   765                           plusw1	equ	0xFE3
   766                           fsr1h	equ	0xFE2
   767                           fsr1l	equ	0xFE1
   768                           bsr	equ	0xFE0
   769                           indf2	equ	0xFDF
   770                           postinc2	equ	0xFDE
   771                           postdec2	equ	0xFDD
   772                           preinc2	equ	0xFDC
   773                           plusw2	equ	0xFDB
   774                           fsr2h	equ	0xFDA
   775                           fsr2l	equ	0xFD9
   776                           status	equ	0xFD8


Data Sizes:
    Strings     0
    Constant    0
    Data        81
    BSS         0
    Persistent  0
    Stack       0

Auto Spaces:
    Space          Size  Autos    Used
    COMRAM           95     12      93
    BANK0           160      0       0
    BANK1           256      0       0
    BANK2           256      0       0
    BANK3           256      0       0
    BANK4           256      0       0
    BANK5           256      0       0

Pointer List with Targets:

    astLEDs.port	PTR volatile unsigned char  size(2) Largest target is 1
		 -> LATE(SFR[1]), LATC(SFR[1]), LATA(SFR[1]), LATB(SFR[1]), 
		 -> LATD(SFR[1]), 

    astOutputs.port	PTR volatile unsigned char  size(2) Largest target is 1
		 -> LATE(SFR[1]), LATC(SFR[1]), LATA(SFR[1]), LATB(SFR[1]), 
		 -> LATD(SFR[1]), 

    astInputs.port	PTR volatile unsigned char  size(2) Largest target is 1
		 -> LATE(SFR[1]), LATC(SFR[1]), LATA(SFR[1]), LATB(SFR[1]), 
		 -> LATD(SFR[1]), 

    get_IO@IO.port	PTR volatile unsigned char  size(2) Largest target is 1
		 -> LATE(SFR[1]), LATC(SFR[1]), LATA(SFR[1]), LATB(SFR[1]), 
		 -> LATD(SFR[1]), 

    S69gstGPIO$port	PTR volatile unsigned char  size(2) Largest target is 1
		 -> LATE(SFR[1]), LATC(SFR[1]), LATA(SFR[1]), LATB(SFR[1]), 
		 -> LATD(SFR[1]), 

    set_IO@IO.port	PTR volatile unsigned char  size(2) Largest target is 1
		 -> LATE(SFR[1]), LATC(SFR[1]), LATA(SFR[1]), LATB(SFR[1]), 
		 -> LATD(SFR[1]), 

    set_IO@IO	PTR struct gstGPIO size(2) Largest target is 36
		 -> astLEDs(COMRAM[27]), 

    set_IO@ucLocal	PTR volatile unsigned char  size(2) Largest target is 1
		 -> LATE(SFR[1]), LATC(SFR[1]), LATA(SFR[1]), LATB(SFR[1]), 
		 -> LATD(SFR[1]), 


Critical Paths under _main in COMRAM

    _main->_all_LEDs
    _setup->_flash_LEDs
    _all_LEDs->_set_IO

Critical Paths under _main in BANK0

    None.

Critical Paths under _main in BANK1

    None.

Critical Paths under _main in BANK2

    None.

Critical Paths under _main in BANK3

    None.

Critical Paths under _main in BANK4

    None.

Critical Paths under _main in BANK5

    None.

Call Graph Tables:

 ---------------------------------------------------------------------------------
 (Depth) Function   	        Calls       Base Space   Used Autos Params    Refs
 ---------------------------------------------------------------------------------
 (0) _main                                                 0     0      0     738
                           _all_LEDs
                              _setup
 ---------------------------------------------------------------------------------
 (1) _setup                                                0     0      0      15
                           _IO_setup
          _Timer_and_Interrupt_setup
                         _flash_LEDs
 ---------------------------------------------------------------------------------
 (2) _flash_LEDs                                           1     1      0      15
                                              0 COMRAM     1     1      0
 ---------------------------------------------------------------------------------
 (2) _Timer_and_Interrupt_setup                            0     0      0       0
 ---------------------------------------------------------------------------------
 (2) _IO_setup                                             0     0      0       0
 ---------------------------------------------------------------------------------
 (1) _all_LEDs                                             1     1      0     723
                                             11 COMRAM     1     1      0
                             _set_IO
 ---------------------------------------------------------------------------------
 (2) _set_IO                                              11     7      4     655
                                              0 COMRAM    11     7      4
 ---------------------------------------------------------------------------------
 Estimated maximum stack depth 2
 ---------------------------------------------------------------------------------

 Call Graph Graphs:

 _main (ROOT)
   _all_LEDs
     _set_IO
   _setup
     _IO_setup
     _Timer_and_Interrupt_setup
     _flash_LEDs

 Address spaces:
Name               Size   Autos  Total    Cost      Usage
BIGRAM             5FF      0       0      17        0.0%
EEDATA             100      0       0       0        0.0%
BITBANK5           100      0       0      16        0.0%
BANK5              100      0       0      14        0.0%
BITBANK4           100      0       0      12        0.0%
BANK4              100      0       0      13        0.0%
BITBANK3           100      0       0      10        0.0%
BANK3              100      0       0      11        0.0%
BITBANK2           100      0       0       8        0.0%
BANK2              100      0       0       9        0.0%
BITBANK1           100      0       0       6        0.0%
BANK1              100      0       0       7        0.0%
BITBANK0            A0      0       0       4        0.0%
BANK0               A0      0       0       5        0.0%
BITCOMRAM           5F      0       0       0        0.0%
COMRAM              5F      C      5D       1       97.9%
BITSFR               0      0       0     200        0.0%
SFR                  0      0       0     200        0.0%
STACK                0      0       0       2        0.0%
NULL                 0      0       0       0        0.0%
ABS                  0      0      5D      15        0.0%
DATA                 0      0      5D       3        0.0%
CODE                 0      0       0       0        0.0%


Microchip Technology PIC18 Macro Assembler V2.10 build 88905656 
Symbol Table                                                                                   Thu Apr 09 07:32:32 2020

                                l61 7FFE                                  l71 7E7A  
                                l74 7E5E                                  l77 7E38  
                                l97 7EE8                                  u40 7E96  
                                u41 7E92                                  u80 7F6C  
                                u81 7F68                                  u94 7F9E  
                                u95 7F9A                                 l103 7E96  
                               l801 7E74                                 l803 7E76  
                               l811 7E84                                 l805 7E78  
                               l813 7E86                                 l821 7E34  
                               l807 7E4A                                 l809 7E7C  
                               l819 7E2C                                 l871 7FB4  
                               l791 7E6A                                 l865 7F3C  
                               l881 7ED6                                 l873 7EBE  
                               l793 7E6C                                 l867 7F5C  
                               l883 7ED8                                 l795 7E6E  
                               l787 7E60                                 l869 7F6C  
                               l797 7E70                                 l789 7E68  
                               l885 7E3A                                 l879 7EC2  
                               l799 7E72                                 l887 7E3E  
                               u110 7EE8                                 u111 7EE4  
                               u104 7FE6                                 u105 7FE2  
                      __CFG_LVP$OFF 000000                                _LATA 000F89  
                              _LATB 000F8A                                _LATC 000F8B  
                              _LATD 000F8C                                _LATE 000F8D  
                              _main 7E3A                                fsr2h 000FDA  
                              indf2 000FDF                                fsr1l 000FE1  
                              fsr2l 000FD9                                prodh 000FF4  
                              prodl 000FF3                                start 0000  
                      ___param_bank 000000                               ?_main 0052  
                             _ANSEL 000F7E                               _T0CON 000FD5  
                             _T3CON 000FB1                               _TRISA 000F92  
                             _TRISC 000F94                               _TRISD 000F95  
                             _setup 7E2C                    __end_of_IO_setup 7E7C  
                             tablat 000FF5                               status 000FD8  
                   __initialization 7E98                        __end_of_main 7E4A  
                            ??_main 005E                       __activetblptr 000000  
       ??_Timer_and_Interrupt_setup 0052                              ?_setup 0052  
                            _ANSELH 000F7F                      __CFG_WDTEN$OFF 000000  
                            _OSCCON 000FD3                    __end_of_all_LEDs 7EEA  
                            _set_IO 7F3C                        __pdataCOMRAM 0001  
                            tblptrh 000FF7                              tblptrl 000FF6  
                            tblptru 000FF8                          __accesstop 0060  
           __end_of__initialization 7EB8                       ___rparam_used 000001  
                     set_IO@ucLocal 005B           _Timer_and_Interrupt_setup 7E4A  
                    __pcstackCOMRAM 0052                       __end_of_setup 7E3A  
                         ?_IO_setup 0052                             ??_setup 0053  
                           ?_set_IO 0052                          ??_IO_setup 0052  
                        _flash_LEDs 7E7C                           ?_all_LEDs 0052  
                        _astOutputs 0001                          all_LEDs@uc 005D  
                           __Hparam 0000                             __Lparam 0000  
                           __pcinit 7E98                             _astLEDs 0037  
                           __ramtop 0600                     __size_of_set_IO 00C4  
                           __ptext0 7E3A                             __ptext1 7E2C  
                           __ptext2 7E7C                             __ptext3 7E4A  
                           __ptext4 7E60                             __ptext5 7EBE  
                           __ptext6 7F3C                          ??_all_LEDs 005D  
              end_of_initialization 7EB8                             postdec1 000FE5  
                           postdec2 000FDD                             postinc0 000FEE  
                           postinc2 000FDE  __size_of_Timer_and_Interrupt_setup 0016  
                       ?_flash_LEDs 0052                           _TRISBbits 000F93  
                         _TRISEbits 000F96                       __pidataCOMRAM 7EEB  
                    __end_of_set_IO 8000                   __size_of_IO_setup 001C  
               start_initialization 7E98                 __size_of_flash_LEDs 001C  
                          ??_set_IO 0056                        set_IO@bValue 0055  
                 __size_of_all_LEDs 002C                          set_IO@item 0054  
                         _astInputs 001C                      __size_of_setup 000E  
                          _LATEbits 000F8D                            _IO_setup 7E60  
                      ??_flash_LEDs 0052                           copy_data0 7EAC  
                          __Hrparam 0000                  __end_of_flash_LEDs 7E98  
                          __Lrparam 0000                            _all_LEDs 7EBE  
                     __size_of_main 0010          ?_Timer_and_Interrupt_setup 0052  
                          set_IO@IO 0052   __end_of_Timer_and_Interrupt_setup 7E60  
                      flash_LEDs@uc 0052                   __CFG_FOSC$INTIO67 000000  
